; Function Attrs: mustprogress uwtable
define hidden void @_ZNK12mpfx_manager11display_rawERSoRK4mpfx(ptr noundef nonnull readonly align 8 captures(none) dereferenceable(85) %0, ptr noundef nonnull align 8 dereferenceable(8) %1, ptr noundef nonnull readonly align 4 captures(none) dereferenceable(4) %2) local_unnamed_addr #3 align 2 {
  %4 = load i32, ptr %2, align 4
  %5 = and i32 %4, 1
  %.not11 = icmp eq i32 %5, 0
  br i1 %.not11, label %8, label %6

6:                                                ; preds = %3
  %7 = tail call noundef nonnull align 8 dereferenceable(8) ptr @_ZSt16__ostream_insertIcSt11char_traitsIcEERSt13basic_ostreamIT_T0_ES6_PKS3_l(ptr noundef nonnull align 8 dereferenceable(8) %1, ptr noundef nonnull @.str.3, i64 noundef 1)
  %.pre = load i32, ptr %2, align 4
  br label %8

8:                                                ; preds = %6, %3
  %9 = phi i32 [ %.pre, %6 ], [ %4, %3 ]
  %10 = getelementptr inbounds nuw i8, ptr %0, i64 16
  %11 = load ptr, ptr %10, align 8, !tbaa !3
  %12 = lshr i32 %9, 1
  %13 = getelementptr inbounds nuw i8, ptr %0, i64 8
  %14 = load i32, ptr %13, align 8, !tbaa !19
  %15 = mul i32 %12, %14
  %16 = zext i32 %15 to i64
  %17 = getelementptr inbounds nuw i32, ptr %11, i64 %16
  %invariant.gep = getelementptr i8, ptr %1, i64 24
  %invariant.gep12 = getelementptr i8, ptr %1, i64 16
  %.not14 = icmp eq i32 %14, 0
  br i1 %.not14, label %._crit_edge, label %.lr.ph

.lr.ph:                                           ; preds = %8
  %18 = getelementptr inbounds nuw i8, ptr %0, i64 4
  %19 = zext i32 %14 to i64
  br label %20

20:                                               ; preds = %.lr.ph, %_ZStlsIcSt11char_traitsIcEERSt13basic_ostreamIT_T0_ES6_St8_SetfillIS3_E.exit
  %indvars.iv = phi i64 [ %19, %.lr.ph ], [ %27, %_ZStlsIcSt11char_traitsIcEERSt13basic_ostreamIT_T0_ES6_St8_SetfillIS3_E.exit ]
  %21 = load i32, ptr %18, align 4, !tbaa !18
  %22 = zext i32 %21 to i64
  %23 = icmp eq i64 %indvars.iv, %22
  br i1 %23, label %24, label %26

24:                                               ; preds = %20
  %25 = tail call noundef nonnull align 8 dereferenceable(8) ptr @_ZSt16__ostream_insertIcSt11char_traitsIcEERSt13basic_ostreamIT_T0_ES6_PKS3_l(ptr noundef nonnull align 8 dereferenceable(8) %1, ptr noundef nonnull @.str.4, i64 noundef 1)
  br label %26

26:                                               ; preds = %24, %20
  %27 = add nsw i64 %indvars.iv, -1
  %28 = load ptr, ptr %1, align 8, !tbaa !27
  %29 = getelementptr i8, ptr %28, i64 -24
  %30 = load i64, ptr %29, align 8
  %gep = getelementptr i8, ptr %invariant.gep, i64 %30
  %31 = load i32, ptr %gep, align 8, !tbaa !81
  %32 = and i32 %31, -75
  %33 = or disjoint i32 %32, 8
  store i32 %33, ptr %gep, align 4, !tbaa !90
  %34 = load i64, ptr %29, align 8
  %35 = getelementptr inbounds i8, ptr %1, i64 %34
  %36 = getelementptr inbounds nuw i8, ptr %35, i64 225
  %37 = load i8, ptr %36, align 1, !tbaa !91, !range !49, !noundef !50
  %38 = trunc nuw i8 %37 to i1
  br i1 %38, label %_ZStlsIcSt11char_traitsIcEERSt13basic_ostreamIT_T0_ES6_St8_SetfillIS3_E.exit, label %39

39:                                               ; preds = %26
  %40 = getelementptr inbounds nuw i8, ptr %35, i64 240
  %41 = load ptr, ptr %40, align 8, !tbaa !98
  %.not.i.i.i.i.i = icmp eq ptr %41, null
  br i1 %.not.i.i.i.i.i, label %42, label %_ZSt13__check_facetISt5ctypeIcEERKT_PS3_.exit.i.i.i.i

42:                                               ; preds = %39
  tail call void @_ZSt16__throw_bad_castv() #26
  unreachable

_ZSt13__check_facetISt5ctypeIcEERKT_PS3_.exit.i.i.i.i: ; preds = %39
  %43 = getelementptr inbounds nuw i8, ptr %41, i64 56
  %44 = load i8, ptr %43, align 8, !tbaa !99
  %.not.i1.i.i.i.i = icmp eq i8 %44, 0
  br i1 %.not.i1.i.i.i.i, label %45, label %_ZNKSt9basic_iosIcSt11char_traitsIcEE5widenEc.exit.i.i.i

45:                                               ; preds = %_ZSt13__check_facetISt5ctypeIcEERKT_PS3_.exit.i.i.i.i
  tail call void @_ZNKSt5ctypeIcE13_M_widen_initEv(ptr noundef nonnull align 8 dereferenceable(570) %41)
  %46 = load ptr, ptr %41, align 8, !tbaa !27
  %47 = getelementptr inbounds nuw i8, ptr %46, i64 48
  %48 = load ptr, ptr %47, align 8
  %49 = tail call noundef signext i8 %48(ptr noundef nonnull align 8 dereferenceable(570) %41, i8 noundef signext 32)
  %.pre17.pre = load ptr, ptr %1, align 8, !tbaa !27
  br label %_ZNKSt9basic_iosIcSt11char_traitsIcEE5widenEc.exit.i.i.i

_ZNKSt9basic_iosIcSt11char_traitsIcEE5widenEc.exit.i.i.i: ; preds = %45, %_ZSt13__check_facetISt5ctypeIcEERKT_PS3_.exit.i.i.i.i
  %.pre17 = phi ptr [ %.pre17.pre, %45 ], [ %28, %_ZSt13__check_facetISt5ctypeIcEERKT_PS3_.exit.i.i.i.i ]
  store i8 1, ptr %36, align 1, !tbaa !91
  br label %_ZStlsIcSt11char_traitsIcEERSt13basic_ostreamIT_T0_ES6_St8_SetfillIS3_E.exit

_ZStlsIcSt11char_traitsIcEERSt13basic_ostreamIT_T0_ES6_St8_SetfillIS3_E.exit: ; preds = %26, %_ZNKSt9basic_iosIcSt11char_traitsIcEE5widenEc.exit.i.i.i
  %50 = phi ptr [ %28, %26 ], [ %.pre17, %_ZNKSt9basic_iosIcSt11char_traitsIcEE5widenEc.exit.i.i.i ]
  %51 = getelementptr inbounds nuw i8, ptr %35, i64 224
  store i8 48, ptr %51, align 8, !tbaa !104
  %52 = getelementptr i8, ptr %50, i64 -24
  %53 = load i64, ptr %52, align 8
  %gep13 = getelementptr i8, ptr %invariant.gep12, i64 %53
  store i64 8, ptr %gep13, align 8, !tbaa !105
  %54 = getelementptr inbounds nuw i32, ptr %17, i64 %27
  %55 = load i32, ptr %54, align 4, !tbaa !22
  %56 = zext i32 %55 to i64
  %57 = tail call noundef nonnull align 8 dereferenceable(8) ptr @_ZNSo9_M_insertImEERSoT_(ptr noundef nonnull align 8 dereferenceable(8) %1, i64 noundef %56)
  %.not.wide = icmp eq i64 %27, 0
  br i1 %.not.wide, label %._crit_edge, label %20, !llvm.loop !106

._crit_edge:                                      ; preds = %_ZStlsIcSt11char_traitsIcEERSt13basic_ostreamIT_T0_ES6_St8_SetfillIS3_E.exit, %8
  ret void
}